; Function Attrs: nounwind uwtable
define nonnull ptr @l_Int_Linear_cooper__right__split__dvd__cert___boxed(ptr noundef %0, ptr noundef %1, ptr noundef %2, ptr noundef %3) local_unnamed_addr #1 {
  %5 = tail call zeroext i8 @l_Int_Linear_cooper__right__split__dvd__cert(ptr noundef %0, ptr noundef %1, ptr noundef %2, ptr noundef %3)
  %6 = ptrtoint ptr %3 to i64
  %7 = and i64 %6, 1
  %.not = icmp eq i64 %7, 0
  br i1 %.not, label %8, label %lean_dec.exit11

8:                                                ; preds = %4
  %9 = load i32, ptr %3, align 4, !tbaa !6
  %10 = icmp sgt i32 %9, 1
  br i1 %10, label %11, label %13, !prof !5

11:                                               ; preds = %8
  %12 = add nsw i32 %9, -1
  store i32 %12, ptr %3, align 4, !tbaa !6
  br label %lean_dec.exit11

13:                                               ; preds = %8
  %.not.i = icmp eq i32 %9, 0
  br i1 %.not.i, label %lean_dec.exit11, label %14

14:                                               ; preds = %13
  tail call void @lean_dec_ref_cold(ptr noundef nonnull %3) #5
  br label %lean_dec.exit11

lean_dec.exit11:                                  ; preds = %14, %13, %11, %4
  %15 = ptrtoint ptr %2 to i64
  %16 = and i64 %15, 1
  %.not18 = icmp eq i64 %16, 0
  br i1 %.not18, label %17, label %lean_dec.exit10

17:                                               ; preds = %lean_dec.exit11
  %18 = load i32, ptr %2, align 4, !tbaa !6
  %19 = icmp sgt i32 %18, 1
  br i1 %19, label %20, label %22, !prof !5

20:                                               ; preds = %17
  %21 = add nsw i32 %18, -1
  store i32 %21, ptr %2, align 4, !tbaa !6
  br label %lean_dec.exit10

22:                                               ; preds = %17
  %.not.i12 = icmp eq i32 %18, 0
  br i1 %.not.i12, label %lean_dec.exit10, label %23

23:                                               ; preds = %22
  tail call void @lean_dec_ref_cold(ptr noundef nonnull %2) #5
  br label %lean_dec.exit10

lean_dec.exit10:                                  ; preds = %23, %22, %20, %lean_dec.exit11
  %24 = ptrtoint ptr %1 to i64
  %25 = and i64 %24, 1
  %.not19 = icmp eq i64 %25, 0
  br i1 %.not19, label %26, label %lean_dec.exit9

26:                                               ; preds = %lean_dec.exit10
  %27 = load i32, ptr %1, align 4, !tbaa !6
  %28 = icmp sgt i32 %27, 1
  br i1 %28, label %29, label %31, !prof !5

29:                                               ; preds = %26
  %30 = add nsw i32 %27, -1
  store i32 %30, ptr %1, align 4, !tbaa !6
  br label %lean_dec.exit9

31:                                               ; preds = %26
  %.not.i14 = icmp eq i32 %27, 0
  br i1 %.not.i14, label %lean_dec.exit9, label %32

32:                                               ; preds = %31
  tail call void @lean_dec_ref_cold(ptr noundef nonnull %1) #5
  br label %lean_dec.exit9

lean_dec.exit9:                                   ; preds = %32, %31, %29, %lean_dec.exit10
  %33 = ptrtoint ptr %0 to i64
  %34 = and i64 %33, 1
  %.not20 = icmp eq i64 %34, 0
  br i1 %.not20, label %35, label %lean_dec.exit

35:                                               ; preds = %lean_dec.exit9
  %36 = load i32, ptr %0, align 4, !tbaa !6
  %37 = icmp sgt i32 %36, 1
  br i1 %37, label %38, label %40, !prof !5

38:                                               ; preds = %35
  %39 = add nsw i32 %36, -1
  store i32 %39, ptr %0, align 4, !tbaa !6
  br label %lean_dec.exit

40:                                               ; preds = %35
  %.not.i16 = icmp eq i32 %36, 0
  br i1 %.not.i16, label %lean_dec.exit, label %41

41:                                               ; preds = %40
  tail call void @lean_dec_ref_cold(ptr noundef nonnull %0) #5
  br label %lean_dec.exit

lean_dec.exit:                                    ; preds = %41, %40, %38, %lean_dec.exit9
  %42 = shl nuw nsw i8 %5, 1
  %43 = or disjoint i8 %42, 1
  %44 = zext nneg i8 %43 to i64
  %45 = inttoptr i64 %44 to ptr
  ret ptr %45
}